target datalayout = "e-m:e-p270:32:32-p271:32:32-p272:64:64-i64:64-i128:128-f80:128-n8:16:32:64-S128"
target triple = "x86_64-pc-linux-gnu"

%"struct.std::_Rb_tree_header" = type { %"struct.std::_Rb_tree_node_base", i64 }
%"struct.std::_Rb_tree_node_base" = type { i32, ptr, ptr, ptr }
%"class.std::vector.56" = type { %"struct.std::_Vector_base.57" }
%"struct.std::_Vector_base.57" = type { %"struct.std::_Vector_base<vcg::Point3<float>, std::allocator<vcg::Point3<float>>>::_Vector_impl" }
%"struct.std::_Vector_base<vcg::Point3<float>, std::allocator<vcg::Point3<float>>>::_Vector_impl" = type { %"struct.std::_Vector_base<vcg::Point3<float>, std::allocator<vcg::Point3<float>>>::_Vector_impl_data" }
%"struct.std::_Vector_base<vcg::Point3<float>, std::allocator<vcg::Point3<float>>>::_Vector_impl_data" = type { ptr, ptr, ptr }
%"class.std::vector.5" = type { %"struct.std::_Vector_base.6" }
%"struct.std::_Vector_base.6" = type { %"struct.std::_Vector_base<vcg::Color4<unsigned char>, std::allocator<vcg::Color4<unsigned char>>>::_Vector_impl" }
%"struct.std::_Vector_base<vcg::Color4<unsigned char>, std::allocator<vcg::Color4<unsigned char>>>::_Vector_impl" = type { %"struct.std::_Vector_base<vcg::Color4<unsigned char>, std::allocator<vcg::Color4<unsigned char>>>::_Vector_impl_data" }
%"struct.std::_Vector_base<vcg::Color4<unsigned char>, std::allocator<vcg::Color4<unsigned char>>>::_Vector_impl_data" = type { ptr, ptr, ptr }
%"class.vcg::Color4" = type { %"class.vcg::Point4" }
%"class.vcg::Point4" = type { [4 x i8] }
%class.EditPickPointsPlugin = type <{ %class.QObject, %class.EditTool, %class.QPoint, i8, i8, [6 x i8], ptr, ptr, ptr, i32, [4 x i8] }>
%class.QObject = type { ptr, %class.QScopedPointer }
%class.QScopedPointer = type { ptr }
%class.EditTool = type { %class.MeshLabPluginLogger }
%class.MeshLabPluginLogger = type { ptr, ptr }
%class.QPoint = type { i32, i32 }
%class.QString = type { ptr }
%"class.vcg::Point3" = type { [3 x float] }
%class.MeshModel = type { %class.CMeshO, i32, i8, %class.QString, %class.QString, i32, i8, i32, %"class.std::map.135" }
%class.CMeshO = type { %"class.vcg::tri::TriMesh.base", i32, i32, i32, i32, %"class.vcg::Matrix44", [4 x i8] }
%"class.vcg::tri::TriMesh.base" = type <{ ptr, %"class.vcg::vertex::vector_ocf", i32, [4 x i8], %"class.std::vector.76", i32, [4 x i8], %"class.vcg::face::vector_ocf", i32, [4 x i8], %"class.std::vector.111", i32, [4 x i8], %"class.std::vector.116", i32, %"class.vcg::Box3", [4 x i8], %"class.std::vector.121", %"class.std::vector.121", i32, [4 x i8], %"class.std::set", %"class.std::set", %"class.std::set", %"class.std::set", %"class.std::set", %"class.vcg::Shot", %"class.vcg::Color4", i32 }>
%"class.vcg::vertex::vector_ocf" = type <{ %"class.std::vector.36", %"class.std::vector.5", %"class.std::vector.41", %"class.std::vector.46", %"class.std::vector.51", %"class.std::vector.56", %"class.std::vector.61", %"class.std::vector.61", %"class.std::vector.66", %"class.std::vector.71", i8, i8, i8, i8, i8, i8, i8, i8, i8, [7 x i8] }>
%"class.std::vector.36" = type { %"struct.std::_Vector_base.37" }
%"struct.std::_Vector_base.37" = type { %"struct.std::_Vector_base<CVertexO, std::allocator<CVertexO>>::_Vector_impl" }
%"struct.std::_Vector_base<CVertexO, std::allocator<CVertexO>>::_Vector_impl" = type { %"struct.std::_Vector_base<CVertexO, std::allocator<CVertexO>>::_Vector_impl_data" }
%"struct.std::_Vector_base<CVertexO, std::allocator<CVertexO>>::_Vector_impl_data" = type { ptr, ptr, ptr }
%"class.std::vector.41" = type { %"struct.std::_Vector_base.42" }
%"struct.std::_Vector_base.42" = type { %"struct.std::_Vector_base<vcg::Point2<float>, std::allocator<vcg::Point2<float>>>::_Vector_impl" }
%"struct.std::_Vector_base<vcg::Point2<float>, std::allocator<vcg::Point2<float>>>::_Vector_impl" = type { %"struct.std::_Vector_base<vcg::Point2<float>, std::allocator<vcg::Point2<float>>>::_Vector_impl_data" }
%"struct.std::_Vector_base<vcg::Point2<float>, std::allocator<vcg::Point2<float>>>::_Vector_impl_data" = type { ptr, ptr, ptr }
%"class.std::vector.46" = type { %"struct.std::_Vector_base.47" }
%"struct.std::_Vector_base.47" = type { %"struct.std::_Vector_base<vcg::vertex::CurvatureDirTypeOcf<float>, std::allocator<vcg::vertex::CurvatureDirTypeOcf<float>>>::_Vector_impl" }
%"struct.std::_Vector_base<vcg::vertex::CurvatureDirTypeOcf<float>, std::allocator<vcg::vertex::CurvatureDirTypeOcf<float>>>::_Vector_impl" = type { %"struct.std::_Vector_base<vcg::vertex::CurvatureDirTypeOcf<float>, std::allocator<vcg::vertex::CurvatureDirTypeOcf<float>>>::_Vector_impl_data" }
%"struct.std::_Vector_base<vcg::vertex::CurvatureDirTypeOcf<float>, std::allocator<vcg::vertex::CurvatureDirTypeOcf<float>>>::_Vector_impl_data" = type { ptr, ptr, ptr }
%"class.std::vector.51" = type { %"struct.std::_Vector_base.52" }
%"struct.std::_Vector_base.52" = type { %"struct.std::_Vector_base<int, std::allocator<int>>::_Vector_impl" }
%"struct.std::_Vector_base<int, std::allocator<int>>::_Vector_impl" = type { %"struct.std::_Vector_base<int, std::allocator<int>>::_Vector_impl_data" }
%"struct.std::_Vector_base<int, std::allocator<int>>::_Vector_impl_data" = type { ptr, ptr, ptr }
%"class.std::vector.61" = type { %"struct.std::_Vector_base.62" }
%"struct.std::_Vector_base.62" = type { %"struct.std::_Vector_base<float, std::allocator<float>>::_Vector_impl" }
%"struct.std::_Vector_base<float, std::allocator<float>>::_Vector_impl" = type { %"struct.std::_Vector_base<float, std::allocator<float>>::_Vector_impl_data" }
%"struct.std::_Vector_base<float, std::allocator<float>>::_Vector_impl_data" = type { ptr, ptr, ptr }
%"class.std::vector.66" = type { %"struct.std::_Vector_base.67" }
%"struct.std::_Vector_base.67" = type { %"struct.std::_Vector_base<vcg::TexCoord2<>, std::allocator<vcg::TexCoord2<>>>::_Vector_impl" }
%"struct.std::_Vector_base<vcg::TexCoord2<>, std::allocator<vcg::TexCoord2<>>>::_Vector_impl" = type { %"struct.std::_Vector_base<vcg::TexCoord2<>, std::allocator<vcg::TexCoord2<>>>::_Vector_impl_data" }
%"struct.std::_Vector_base<vcg::TexCoord2<>, std::allocator<vcg::TexCoord2<>>>::_Vector_impl_data" = type { ptr, ptr, ptr }
%"class.std::vector.71" = type { %"struct.std::_Vector_base.72" }
%"struct.std::_Vector_base.72" = type { %"struct.std::_Vector_base<vcg::vertex::vector_ocf<CVertexO>::VFAdjType, std::allocator<vcg::vertex::vector_ocf<CVertexO>::VFAdjType>>::_Vector_impl" }
%"struct.std::_Vector_base<vcg::vertex::vector_ocf<CVertexO>::VFAdjType, std::allocator<vcg::vertex::vector_ocf<CVertexO>::VFAdjType>>::_Vector_impl" = type { %"struct.std::_Vector_base<vcg::vertex::vector_ocf<CVertexO>::VFAdjType, std::allocator<vcg::vertex::vector_ocf<CVertexO>::VFAdjType>>::_Vector_impl_data" }
%"struct.std::_Vector_base<vcg::vertex::vector_ocf<CVertexO>::VFAdjType, std::allocator<vcg::vertex::vector_ocf<CVertexO>::VFAdjType>>::_Vector_impl_data" = type { ptr, ptr, ptr }
%"class.std::vector.76" = type { %"struct.std::_Vector_base.77" }
%"struct.std::_Vector_base.77" = type { %"struct.std::_Vector_base<CEdgeO, std::allocator<CEdgeO>>::_Vector_impl" }
%"struct.std::_Vector_base<CEdgeO, std::allocator<CEdgeO>>::_Vector_impl" = type { %"struct.std::_Vector_base<CEdgeO, std::allocator<CEdgeO>>::_Vector_impl_data" }
%"struct.std::_Vector_base<CEdgeO, std::allocator<CEdgeO>>::_Vector_impl_data" = type { ptr, ptr, ptr }
%"class.vcg::face::vector_ocf" = type <{ %"class.std::vector.81", %"class.std::vector.5", %"class.std::vector.86", %"class.std::vector.51", %"class.std::vector.56", %"class.std::vector.61", %"class.std::vector.91", %"class.std::vector.96", %"class.std::vector.101", %"class.std::vector.106", %"class.std::vector.106", i8, i8, i8, i8, i8, i8, i8, i8, i8, i8, [6 x i8] }>
%"class.std::vector.81" = type { %"struct.std::_Vector_base.82" }
%"struct.std::_Vector_base.82" = type { %"struct.std::_Vector_base<CFaceO, std::allocator<CFaceO>>::_Vector_impl" }
%"struct.std::_Vector_base<CFaceO, std::allocator<CFaceO>>::_Vector_impl" = type { %"struct.std::_Vector_base<CFaceO, std::allocator<CFaceO>>::_Vector_impl_data" }
%"struct.std::_Vector_base<CFaceO, std::allocator<CFaceO>>::_Vector_impl_data" = type { ptr, ptr, ptr }
%"class.std::vector.86" = type { %"struct.std::_Vector_base.87" }
%"struct.std::_Vector_base.87" = type { %"struct.std::_Vector_base<vcg::face::CurvatureDirOcfBaseType<float>, std::allocator<vcg::face::CurvatureDirOcfBaseType<float>>>::_Vector_impl" }
%"struct.std::_Vector_base<vcg::face::CurvatureDirOcfBaseType<float>, std::allocator<vcg::face::CurvatureDirOcfBaseType<float>>>::_Vector_impl" = type { %"struct.std::_Vector_base<vcg::face::CurvatureDirOcfBaseType<float>, std::allocator<vcg::face::CurvatureDirOcfBaseType<float>>>::_Vector_impl_data" }
%"struct.std::_Vector_base<vcg::face::CurvatureDirOcfBaseType<float>, std::allocator<vcg::face::CurvatureDirOcfBaseType<float>>>::_Vector_impl_data" = type { ptr, ptr, ptr }
%"class.std::vector.91" = type { %"struct.std::_Vector_base.92" }
%"struct.std::_Vector_base.92" = type { %"struct.std::_Vector_base<vcg::face::vector_ocf<CFaceO>::WedgeColorTypePack, std::allocator<vcg::face::vector_ocf<CFaceO>::WedgeColorTypePack>>::_Vector_impl" }
%"struct.std::_Vector_base<vcg::face::vector_ocf<CFaceO>::WedgeColorTypePack, std::allocator<vcg::face::vector_ocf<CFaceO>::WedgeColorTypePack>>::_Vector_impl" = type { %"struct.std::_Vector_base<vcg::face::vector_ocf<CFaceO>::WedgeColorTypePack, std::allocator<vcg::face::vector_ocf<CFaceO>::WedgeColorTypePack>>::_Vector_impl_data" }
%"struct.std::_Vector_base<vcg::face::vector_ocf<CFaceO>::WedgeColorTypePack, std::allocator<vcg::face::vector_ocf<CFaceO>::WedgeColorTypePack>>::_Vector_impl_data" = type { ptr, ptr, ptr }
%"class.std::vector.96" = type { %"struct.std::_Vector_base.97" }
%"struct.std::_Vector_base.97" = type { %"struct.std::_Vector_base<vcg::face::vector_ocf<CFaceO>::WedgeNormalTypePack, std::allocator<vcg::face::vector_ocf<CFaceO>::WedgeNormalTypePack>>::_Vector_impl" }
%"struct.std::_Vector_base<vcg::face::vector_ocf<CFaceO>::WedgeNormalTypePack, std::allocator<vcg::face::vector_ocf<CFaceO>::WedgeNormalTypePack>>::_Vector_impl" = type { %"struct.std::_Vector_base<vcg::face::vector_ocf<CFaceO>::WedgeNormalTypePack, std::allocator<vcg::face::vector_ocf<CFaceO>::WedgeNormalTypePack>>::_Vector_impl_data" }
%"struct.std::_Vector_base<vcg::face::vector_ocf<CFaceO>::WedgeNormalTypePack, std::allocator<vcg::face::vector_ocf<CFaceO>::WedgeNormalTypePack>>::_Vector_impl_data" = type { ptr, ptr, ptr }
%"class.std::vector.101" = type { %"struct.std::_Vector_base.102" }
%"struct.std::_Vector_base.102" = type { %"struct.std::_Vector_base<vcg::face::vector_ocf<CFaceO>::WedgeTexTypePack, std::allocator<vcg::face::vector_ocf<CFaceO>::WedgeTexTypePack>>::_Vector_impl" }
%"struct.std::_Vector_base<vcg::face::vector_ocf<CFaceO>::WedgeTexTypePack, std::allocator<vcg::face::vector_ocf<CFaceO>::WedgeTexTypePack>>::_Vector_impl" = type { %"struct.std::_Vector_base<vcg::face::vector_ocf<CFaceO>::WedgeTexTypePack, std::allocator<vcg::face::vector_ocf<CFaceO>::WedgeTexTypePack>>::_Vector_impl_data" }
%"struct.std::_Vector_base<vcg::face::vector_ocf<CFaceO>::WedgeTexTypePack, std::allocator<vcg::face::vector_ocf<CFaceO>::WedgeTexTypePack>>::_Vector_impl_data" = type { ptr, ptr, ptr }
%"class.std::vector.106" = type { %"struct.std::_Vector_base.107" }
%"struct.std::_Vector_base.107" = type { %"struct.std::_Vector_base<vcg::face::vector_ocf<CFaceO>::AdjTypePack, std::allocator<vcg::face::vector_ocf<CFaceO>::AdjTypePack>>::_Vector_impl" }
%"struct.std::_Vector_base<vcg::face::vector_ocf<CFaceO>::AdjTypePack, std::allocator<vcg::face::vector_ocf<CFaceO>::AdjTypePack>>::_Vector_impl" = type { %"struct.std::_Vector_base<vcg::face::vector_ocf<CFaceO>::AdjTypePack, std::allocator<vcg::face::vector_ocf<CFaceO>::AdjTypePack>>::_Vector_impl_data" }
%"struct.std::_Vector_base<vcg::face::vector_ocf<CFaceO>::AdjTypePack, std::allocator<vcg::face::vector_ocf<CFaceO>::AdjTypePack>>::_Vector_impl_data" = type { ptr, ptr, ptr }
%"class.std::vector.111" = type { %"struct.std::_Vector_base.112" }
%"struct.std::_Vector_base.112" = type { %"struct.std::_Vector_base<vcg::HEdge<vcg::UsedTypes<vcg::Use<CVertexO>::AsVertexType, vcg::Use<CEdgeO>::AsEdgeType, vcg::Use<CFaceO>::AsFaceType>>, std::allocator<vcg::HEdge<vcg::UsedTypes<vcg::Use<CVertexO>::AsVertexType, vcg::Use<CEdgeO>::AsEdgeType, vcg::Use<CFaceO>::AsFaceType>>>>::_Vector_impl" }
%"struct.std::_Vector_base<vcg::HEdge<vcg::UsedTypes<vcg::Use<CVertexO>::AsVertexType, vcg::Use<CEdgeO>::AsEdgeType, vcg::Use<CFaceO>::AsFaceType>>, std::allocator<vcg::HEdge<vcg::UsedTypes<vcg::Use<CVertexO>::AsVertexType, vcg::Use<CEdgeO>::AsEdgeType, vcg::Use<CFaceO>::AsFaceType>>>>::_Vector_impl" = type { %"struct.std::_Vector_base<vcg::HEdge<vcg::UsedTypes<vcg::Use<CVertexO>::AsVertexType, vcg::Use<CEdgeO>::AsEdgeType, vcg::Use<CFaceO>::AsFaceType>>, std::allocator<vcg::HEdge<vcg::UsedTypes<vcg::Use<CVertexO>::AsVertexType, vcg::Use<CEdgeO>::AsEdgeType, vcg::Use<CFaceO>::AsFaceType>>>>::_Vector_impl_data" }
%"struct.std::_Vector_base<vcg::HEdge<vcg::UsedTypes<vcg::Use<CVertexO>::AsVertexType, vcg::Use<CEdgeO>::AsEdgeType, vcg::Use<CFaceO>::AsFaceType>>, std::allocator<vcg::HEdge<vcg::UsedTypes<vcg::Use<CVertexO>::AsVertexType, vcg::Use<CEdgeO>::AsEdgeType, vcg::Use<CFaceO>::AsFaceType>>>>::_Vector_impl_data" = type { ptr, ptr, ptr }
%"class.std::vector.116" = type { %"struct.std::_Vector_base.117" }
%"struct.std::_Vector_base.117" = type { %"struct.std::_Vector_base<vcg::TetraSimp<vcg::UsedTypes<vcg::Use<CVertexO>::AsVertexType, vcg::Use<CEdgeO>::AsEdgeType, vcg::Use<CFaceO>::AsFaceType>>, std::allocator<vcg::TetraSimp<vcg::UsedTypes<vcg::Use<CVertexO>::AsVertexType, vcg::Use<CEdgeO>::AsEdgeType, vcg::Use<CFaceO>::AsFaceType>>>>::_Vector_impl" }
%"struct.std::_Vector_base<vcg::TetraSimp<vcg::UsedTypes<vcg::Use<CVertexO>::AsVertexType, vcg::Use<CEdgeO>::AsEdgeType, vcg::Use<CFaceO>::AsFaceType>>, std::allocator<vcg::TetraSimp<vcg::UsedTypes<vcg::Use<CVertexO>::AsVertexType, vcg::Use<CEdgeO>::AsEdgeType, vcg::Use<CFaceO>::AsFaceType>>>>::_Vector_impl" = type { %"struct.std::_Vector_base<vcg::TetraSimp<vcg::UsedTypes<vcg::Use<CVertexO>::AsVertexType, vcg::Use<CEdgeO>::AsEdgeType, vcg::Use<CFaceO>::AsFaceType>>, std::allocator<vcg::TetraSimp<vcg::UsedTypes<vcg::Use<CVertexO>::AsVertexType, vcg::Use<CEdgeO>::AsEdgeType, vcg::Use<CFaceO>::AsFaceType>>>>::_Vector_impl_data" }
%"struct.std::_Vector_base<vcg::TetraSimp<vcg::UsedTypes<vcg::Use<CVertexO>::AsVertexType, vcg::Use<CEdgeO>::AsEdgeType, vcg::Use<CFaceO>::AsFaceType>>, std::allocator<vcg::TetraSimp<vcg::UsedTypes<vcg::Use<CVertexO>::AsVertexType, vcg::Use<CEdgeO>::AsEdgeType, vcg::Use<CFaceO>::AsFaceType>>>>::_Vector_impl_data" = type { ptr, ptr, ptr }
%"class.vcg::Box3" = type { %"class.vcg::Point3", %"class.vcg::Point3" }
%"class.std::vector.121" = type { %"struct.std::_Vector_base.122" }
%"struct.std::_Vector_base.122" = type { %"struct.std::_Vector_base<std::__cxx11::basic_string<char>, std::allocator<std::__cxx11::basic_string<char>>>::_Vector_impl" }
%"struct.std::_Vector_base<std::__cxx11::basic_string<char>, std::allocator<std::__cxx11::basic_string<char>>>::_Vector_impl" = type { %"struct.std::_Vector_base<std::__cxx11::basic_string<char>, std::allocator<std::__cxx11::basic_string<char>>>::_Vector_impl_data" }
%"struct.std::_Vector_base<std::__cxx11::basic_string<char>, std::allocator<std::__cxx11::basic_string<char>>>::_Vector_impl_data" = type { ptr, ptr, ptr }
%"class.std::set" = type { %"class.std::_Rb_tree.126" }
%"class.std::_Rb_tree.126" = type { %"struct.std::_Rb_tree<vcg::PointerToAttribute, vcg::PointerToAttribute, std::_Identity<vcg::PointerToAttribute>, std::less<vcg::PointerToAttribute>>::_Rb_tree_impl" }
%"struct.std::_Rb_tree<vcg::PointerToAttribute, vcg::PointerToAttribute, std::_Identity<vcg::PointerToAttribute>, std::less<vcg::PointerToAttribute>>::_Rb_tree_impl" = type { %"struct.std::_Rb_tree_key_compare.130", %"struct.std::_Rb_tree_header" }
%"struct.std::_Rb_tree_key_compare.130" = type { %"struct.std::less.131" }
%"struct.std::less.131" = type { i8 }
%"class.vcg::Shot" = type { %"class.vcg::Camera", %"class.vcg::Shot<float>::ReferenceFrame" }
%"class.vcg::Camera" = type { float, %"class.vcg::Point2", %"class.vcg::Point2.133", %"class.vcg::Point2.133", %"class.vcg::Point2.133", %"struct.std::array", i32 }
%"class.vcg::Point2" = type { [2 x i32] }
%"class.vcg::Point2.133" = type { [2 x float] }
%"struct.std::array" = type { [4 x float] }
%"class.vcg::Shot<float>::ReferenceFrame" = type { %"class.vcg::Matrix44", %"class.vcg::Point3" }
%"class.vcg::Matrix44" = type { %"struct.std::array.134" }
%"struct.std::array.134" = type { [16 x float] }
%"class.std::map.135" = type { %"class.std::_Rb_tree.136" }
%"class.std::_Rb_tree.136" = type { %"struct.std::_Rb_tree<std::__cxx11::basic_string<char>, std::pair<const std::__cxx11::basic_string<char>, QImage>, std::_Select1st<std::pair<const std::__cxx11::basic_string<char>, QImage>>, std::less<std::__cxx11::basic_string<char>>>::_Rb_tree_impl" }
%"struct.std::_Rb_tree<std::__cxx11::basic_string<char>, std::pair<const std::__cxx11::basic_string<char>, QImage>, std::_Select1st<std::pair<const std::__cxx11::basic_string<char>, QImage>>, std::less<std::__cxx11::basic_string<char>>>::_Rb_tree_impl" = type { %"struct.std::_Rb_tree_key_compare.140", %"struct.std::_Rb_tree_header" }
%"struct.std::_Rb_tree_key_compare.140" = type { %"struct.std::less.141" }
%"struct.std::less.141" = type { i8 }
%"class.vcg::tri::TriMesh" = type <{ ptr, %"class.vcg::vertex::vector_ocf", i32, [4 x i8], %"class.std::vector.76", i32, [4 x i8], %"class.vcg::face::vector_ocf", i32, [4 x i8], %"class.std::vector.111", i32, [4 x i8], %"class.std::vector.116", i32, %"class.vcg::Box3", [4 x i8], %"class.std::vector.121", %"class.std::vector.121", i32, [4 x i8], %"class.std::set", %"class.std::set", %"class.std::set", %"class.std::set", %"class.std::set", %"class.vcg::Shot", %"class.vcg::Color4", i32, [4 x i8] }>
%class.QCursor = type { ptr }

; Function Attrs: mustprogress uwtable
define void @_ZN20EditPickPointsPlugin7endEditER9MeshModelP6GLAreaP26MLSceneGLSharedDataContext(ptr noundef nonnull align 8 dereferenceable(76) %0, ptr noundef nonnull align 8 dereferenceable(1288) %1, ptr noundef %2, ptr noundef %3) unnamed_addr #5 align 2 personality ptr @__gxx_personality_v0 {
  %5 = alloca ptr, align 8
  %6 = alloca ptr, align 8
  %7 = alloca ptr, align 8
  %8 = alloca ptr, align 8
  %9 = alloca %class.QCursor, align 8
  %10 = alloca ptr, align 8
  %11 = alloca i32, align 4
  store ptr %0, ptr %5, align 8
  store ptr %1, ptr %6, align 8
  store ptr %2, ptr %7, align 8
  store ptr %3, ptr %8, align 8
  %12 = load ptr, ptr %5, align 8
  %13 = load ptr, ptr %6, align 8
  %14 = getelementptr inbounds %class.MeshModel, ptr %13, i32 0, i32 0
  %15 = getelementptr inbounds %"class.vcg::tri::TriMesh", ptr %14, i32 0, i32 8
  %16 = load i32, ptr %15, align 8
  %17 = icmp sgt i32 %16, 0
  br i1 %17, label %18, label %35

18:                                               ; preds = %4
  %19 = getelementptr inbounds %class.EditPickPointsPlugin, ptr %12, i32 0, i32 6
  %20 = load ptr, ptr %19, align 8
  %21 = icmp ne ptr %20, null
  br i1 %21, label %22, label %35

22:                                               ; preds = %18
  %23 = getelementptr inbounds %class.EditPickPointsPlugin, ptr %12, i32 0, i32 6
  %24 = load ptr, ptr %23, align 8
  call void @_ZN16PickPointsDialog20savePointsToMetaDataEv(ptr noundef nonnull align 8 dereferenceable(464) %24)
  %25 = getelementptr inbounds %class.EditPickPointsPlugin, ptr %12, i32 0, i32 6
  %26 = load ptr, ptr %25, align 8
  call void @_ZN7QWidget4hideEv(ptr noundef nonnull align 8 dereferenceable(48) %26)
  %27 = getelementptr inbounds %class.EditPickPointsPlugin, ptr %12, i32 0, i32 9
  %28 = load i32, ptr %27, align 8
  call void @_ZN7QCursorC1EN2Qt11CursorShapeE(ptr noundef nonnull align 8 dereferenceable(8) %9, i32 noundef %28)
  invoke void @_ZN15QGuiApplication17setOverrideCursorERK7QCursor(ptr noundef nonnull align 8 dereferenceable(8) %9)
          to label %29 unwind label %31

29:                                               ; preds = %22
  call void @_ZN7QCursorD1Ev(ptr noundef nonnull align 8 dereferenceable(8) %9) #3
  %30 = getelementptr inbounds %class.EditPickPointsPlugin, ptr %12, i32 0, i32 7
  store ptr null, ptr %30, align 8
  br label %35

31:                                               ; preds = %22
  %32 = landingpad { ptr, i32 }
          cleanup
  %33 = extractvalue { ptr, i32 } %32, 0
  store ptr %33, ptr %10, align 8
  %34 = extractvalue { ptr, i32 } %32, 1
  store i32 %34, ptr %11, align 4
  call void @_ZN7QCursorD1Ev(ptr noundef nonnull align 8 dereferenceable(8) %9) #3
  br label %36

35:                                               ; preds = %29, %18, %4
  ret void

36:                                               ; preds = %31
  %37 = load ptr, ptr %10, align 8
  %38 = load i32, ptr %11, align 4
  %39 = insertvalue { ptr, i32 } poison, ptr %37, 0
  %40 = insertvalue { ptr, i32 } %39, i32 %38, 1
  resume { ptr, i32 } %40
}

; Function Attrs: uwtable
define void @_ZThn16_N20EditPickPointsPlugin7endEditER9MeshModelP6GLAreaP26MLSceneGLSharedDataContext(ptr noundef %0, ptr noundef nonnull align 8 dereferenceable(1288) %1, ptr noundef %2, ptr noundef %3) unnamed_addr #0 align 2 {
  %5 = alloca ptr, align 8
  %6 = alloca ptr, align 8
  %7 = alloca ptr, align 8
  %8 = alloca ptr, align 8
  store ptr %0, ptr %5, align 8
  store ptr %1, ptr %6, align 8
  store ptr %2, ptr %7, align 8
  store ptr %3, ptr %8, align 8
  %9 = load ptr, ptr %5, align 8
  %10 = getelementptr inbounds i8, ptr %9, i64 -16
  %11 = load ptr, ptr %6, align 8
  %12 = load ptr, ptr %7, align 8
  %13 = load ptr, ptr %8, align 8
  tail call void @_ZN20EditPickPointsPlugin7endEditER9MeshModelP6GLAreaP26MLSceneGLSharedDataContext(ptr noundef nonnull align 8 dereferenceable(76) %10, ptr noundef nonnull align 8 dereferenceable(1288) %11, ptr noundef %12, ptr noundef %13)
  ret void
}